(lp1
I10001
aI6594
aI3962
aI2837
aI2212
aI1815
aI1540
aI1338
aI1184
aI1063
aI964
aI883
aI815
aI757
aI707
aI664
aI625
aI592
aI561
aI534
aI510
aI488
aI468
aI450
aI433
aI418
aI403
aI390
aI378
aI367
aI356
aI346
aI337
aI328
aI320
aI313
aI306
aI332
aI326
aI326
aI332
aI339
aI347
aI370
aI392
aI408
aI408
aI390
aI352
aI306
a.